; Function Attrs: mustprogress uwtable
define noundef i32 @_ZN9grpc_core22ServerPromiseBasedCall10StartBatchEPK7grpc_opmPvb(ptr noundef nonnull align 8 dereferenceable(1200) %this, ptr noundef %ops, i64 noundef %nops, ptr noundef %notify_tag, i1 noundef zeroext %is_notify_tag_closure) unnamed_addr #3 align 2 personality ptr @__gxx_personality_v0 {
entry:
  %completion = alloca %"class.grpc_core::PromiseBasedCall::Completion", align 1
  %cmp = icmp eq i64 %nops, 0
  br i1 %cmp, label %if.then, label %if.end

if.then:                                          ; preds = %entry
  %cq_.i = getelementptr inbounds i8, ptr %this, i64 528
  %0 = load ptr, ptr %cq_.i, align 8
  tail call fastcc void @_ZN9grpc_core12_GLOBAL__N_116EndOpImmediatelyEP21grpc_completion_queuePvb(ptr noundef %0, ptr noundef %notify_tag, i1 noundef zeroext %is_notify_tag_closure)
  br label %return

if.end:                                           ; preds = %entry
  %call2 = tail call noundef i32 @_ZNK9grpc_core22ServerPromiseBasedCall13ValidateBatchEPK7grpc_opm(ptr nonnull align 8 poison, ptr noundef %ops, i64 noundef %nops), !range !152
  %cmp3.not = icmp eq i32 %call2, 0
  br i1 %cmp3.not, label %if.end5, label %return

if.end5:                                          ; preds = %if.end
  call void @_ZN9grpc_core16PromiseBasedCall15StartCompletionEPvbPK7grpc_op(ptr nonnull sret(%"class.grpc_core::PromiseBasedCall::Completion") align 1 %completion, ptr noundef nonnull align 8 dereferenceable(1096) %this, ptr noundef %notify_tag, i1 noundef zeroext %is_notify_tag_closure, ptr noundef %ops)
  invoke void @_ZN9grpc_core22ServerPromiseBasedCall11CommitBatchEPK7grpc_opmRKNS_16PromiseBasedCall10CompletionE(ptr noundef nonnull align 8 dereferenceable(1200) %this, ptr noundef %ops, i64 noundef %nops, ptr noundef nonnull align 1 dereferenceable(1) %completion)
          to label %invoke.cont unwind label %lpad

invoke.cont:                                      ; preds = %if.end5
  invoke void @_ZN9grpc_core16PromiseBasedCall20FinishOpOnCompletionEPNS0_10CompletionENS0_9PendingOpE(ptr noundef nonnull align 8 dereferenceable(1096) %this, ptr noundef nonnull %completion, i32 noundef 0)
          to label %invoke.cont7 unwind label %lpad

invoke.cont7:                                     ; preds = %invoke.cont
  %1 = load i8, ptr %completion, align 1
  %cmp.not.i = icmp eq i8 %1, -1
  br i1 %cmp.not.i, label %return, label %if.then.i

if.then.i:                                        ; preds = %invoke.cont7
  invoke void @gpr_assertion_failed(ptr noundef nonnull @.str.7, i32 noundef 2090, ptr noundef nonnull @.str.116) #29
          to label %invoke.cont.i unwind label %terminate.lpad.i

invoke.cont.i:                                    ; preds = %if.then.i
  unreachable

terminate.lpad.i:                                 ; preds = %if.then.i
  %2 = landingpad { ptr, i32 }
          catch ptr null
  %3 = extractvalue { ptr, i32 } %2, 0
  call void @__clang_call_terminate(ptr %3) #30
  unreachable

lpad:                                             ; preds = %invoke.cont, %if.end5
  %4 = landingpad { ptr, i32 }
          cleanup
  call void @_ZN9grpc_core16PromiseBasedCall10CompletionD2Ev(ptr noundef nonnull align 1 dereferenceable(1) %completion) #28
  resume { ptr, i32 } %4

return:                                           ; preds = %invoke.cont7, %if.end, %if.then
  %retval.0 = phi i32 [ 0, %if.then ], [ %call2, %if.end ], [ 0, %invoke.cont7 ]
  ret i32 %retval.0
}